target datalayout = "e-m:e-p270:32:32-p271:32:32-p272:64:64-i64:64-i128:128-f80:128-n8:16:32:64-S128"
target triple = "x86_64-pc-linux-gnu"

%struct.SDL_AudioDevice = type { ptr, ptr, %struct.SDL_AtomicInt, ptr, ptr, ptr, ptr, ptr, ptr, ptr, i32, ptr, %struct.SDL_AudioSpec, i32, ptr, %struct.SDL_AudioSpec, i32, i32, %struct.SDL_AtomicInt, %struct.SDL_AtomicInt, i8, i8, ptr, ptr, ptr, i32, ptr, i8, ptr, ptr }
%struct.SDL_AudioSpec = type { i32, i32, i32 }
%struct.SDL_AtomicInt = type { i32 }
%struct.SDL_PrivateAudioData = type { ptr, i32, ptr }

; Function Attrs: nounwind uwtable
define internal i32 @DISKAUDIO_RecordDevice(ptr noundef %0, ptr noundef %1, i32 noundef %2) #0 {
  %4 = alloca ptr, align 8
  %5 = alloca ptr, align 8
  %6 = alloca i32, align 4
  %7 = alloca ptr, align 8
  %8 = alloca i32, align 4
  %9 = alloca i32, align 4
  store ptr %0, ptr %4, align 8
  store ptr %1, ptr %5, align 8
  store i32 %2, ptr %6, align 4
  call void @llvm.lifetime.start.p0(i64 8, ptr %7) #5
  %10 = load ptr, ptr %4, align 8
  %11 = getelementptr inbounds nuw %struct.SDL_AudioDevice, ptr %10, i32 0, i32 28
  %12 = load ptr, ptr %11, align 8
  store ptr %12, ptr %7, align 8
  call void @llvm.lifetime.start.p0(i64 4, ptr %8) #5
  %13 = load i32, ptr %6, align 4
  store i32 %13, ptr %8, align 4
  %14 = load ptr, ptr %7, align 8
  %15 = getelementptr inbounds nuw %struct.SDL_PrivateAudioData, ptr %14, i32 0, i32 0
  %16 = load ptr, ptr %15, align 8
  %17 = icmp ne ptr %16, null
  br i1 %17, label %18, label %44

18:                                               ; preds = %3
  call void @llvm.lifetime.start.p0(i64 4, ptr %9) #5
  %19 = load ptr, ptr %7, align 8
  %20 = getelementptr inbounds nuw %struct.SDL_PrivateAudioData, ptr %19, i32 0, i32 0
  %21 = load ptr, ptr %20, align 8
  %22 = load ptr, ptr %5, align 8
  %23 = load i32, ptr %6, align 4
  %24 = sext i32 %23 to i64
  %25 = call i64 @SDL_ReadIO_REAL(ptr noundef %21, ptr noundef %22, i64 noundef %24)
  %26 = trunc i64 %25 to i32
  store i32 %26, ptr %9, align 4
  %27 = load i32, ptr %9, align 4
  %28 = load i32, ptr %6, align 4
  %29 = sub nsw i32 %28, %27
  store i32 %29, ptr %6, align 4
  %30 = load ptr, ptr %5, align 8
  %31 = load i32, ptr %9, align 4
  %32 = sext i32 %31 to i64
  %33 = getelementptr inbounds i8, ptr %30, i64 %32
  store ptr %33, ptr %5, align 8
  %34 = load i32, ptr %6, align 4
  %35 = icmp sgt i32 %34, 0
  br i1 %35, label %36, label %43

36:                                               ; preds = %18
  %37 = load ptr, ptr %7, align 8
  %38 = getelementptr inbounds nuw %struct.SDL_PrivateAudioData, ptr %37, i32 0, i32 0
  %39 = load ptr, ptr %38, align 8
  %40 = call zeroext i1 @SDL_CloseIO_REAL(ptr noundef %39)
  %41 = load ptr, ptr %7, align 8
  %42 = getelementptr inbounds nuw %struct.SDL_PrivateAudioData, ptr %41, i32 0, i32 0
  store ptr null, ptr %42, align 8
  br label %43

43:                                               ; preds = %36, %18
  call void @llvm.lifetime.end.p0(i64 4, ptr %9) #5
  br label %44

44:                                               ; preds = %43, %3
  %45 = load ptr, ptr %5, align 8
  %46 = load ptr, ptr %4, align 8
  %47 = getelementptr inbounds nuw %struct.SDL_AudioDevice, ptr %46, i32 0, i32 17
  %48 = load i32, ptr %47, align 8
  %49 = trunc i32 %48 to i8
  %50 = load i32, ptr %6, align 4
  %51 = sext i32 %50 to i64
  call void @llvm.memset.p0.i64(ptr align 1 %45, i8 %49, i64 %51, i1 false)
  %52 = load i32, ptr %8, align 4
  call void @llvm.lifetime.end.p0(i64 4, ptr %8) #5
  call void @llvm.lifetime.end.p0(i64 8, ptr %7) #5
  ret i32 %52
}