; Function Attrs: nounwind uwtable
define internal noundef i32 @DISKAUDIO_RecordDevice(ptr noundef readonly captures(none) %0, ptr noundef %1, i32 noundef returned %2) #1 {
  %4 = getelementptr inbounds nuw i8, ptr %0, i64 200
  %5 = load ptr, ptr %4, align 8
  %6 = load ptr, ptr %5, align 8
  %.not = icmp eq ptr %6, null
  br i1 %.not, label %18, label %7

7:                                                ; preds = %3
  %8 = sext i32 %2 to i64
  %9 = tail call i64 @SDL_ReadIO_REAL(ptr noundef nonnull %6, ptr noundef %1, i64 noundef %8) #7
  %10 = trunc i64 %9 to i32
  %11 = sub nsw i32 %2, %10
  %sext = shl i64 %9, 32
  %12 = ashr exact i64 %sext, 32
  %13 = getelementptr inbounds i8, ptr %1, i64 %12
  %14 = icmp sgt i32 %11, 0
  br i1 %14, label %15, label %18

15:                                               ; preds = %7
  %16 = load ptr, ptr %5, align 8
  %17 = tail call zeroext i1 @SDL_CloseIO_REAL(ptr noundef %16) #7
  store ptr null, ptr %5, align 8
  br label %18

18:                                               ; preds = %7, %15, %3
  %.016 = phi i32 [ %2, %3 ], [ %11, %15 ], [ %11, %7 ]
  %.0 = phi ptr [ %1, %3 ], [ %13, %15 ], [ %13, %7 ]
  %19 = getelementptr inbounds nuw i8, ptr %0, i64 136
  %20 = load i32, ptr %19, align 8
  %21 = trunc i32 %20 to i8
  %22 = sext i32 %.016 to i64
  tail call void @llvm.memset.p0.i64(ptr align 1 %.0, i8 %21, i64 %22, i1 false)
  ret i32 %2
}